
NTI_AVR_Drivers.elf:     file format elf32-avr

Sections:
Idx Name          Size      VMA       LMA       File off  Algn
  0 .text         00000a0c  00000000  00000000  00000094  2**1
                  CONTENTS, ALLOC, LOAD, READONLY, CODE
  1 .data         00000036  00800060  00000a0c  00000aa0  2**0
                  CONTENTS, ALLOC, LOAD, DATA
  2 .bss          00000016  00800096  00800096  00000ad6  2**0
                  ALLOC
  3 .comment      00000030  00000000  00000000  00000ad6  2**0
                  CONTENTS, READONLY
  4 .note.gnu.avr.deviceinfo 0000003c  00000000  00000000  00000b08  2**2
                  CONTENTS, READONLY
  5 .debug_aranges 000002e8  00000000  00000000  00000b44  2**0
                  CONTENTS, READONLY, DEBUGGING
  6 .debug_info   00002e20  00000000  00000000  00000e2c  2**0
                  CONTENTS, READONLY, DEBUGGING
  7 .debug_abbrev 0000118d  00000000  00000000  00003c4c  2**0
                  CONTENTS, READONLY, DEBUGGING
  8 .debug_line   000015b7  00000000  00000000  00004dd9  2**0
                  CONTENTS, READONLY, DEBUGGING
  9 .debug_frame  00000744  00000000  00000000  00006390  2**2
                  CONTENTS, READONLY, DEBUGGING
 10 .debug_str    00000f4c  00000000  00000000  00006ad4  2**0
                  CONTENTS, READONLY, DEBUGGING
 11 .debug_loc    00001d64  00000000  00000000  00007a20  2**0
                  CONTENTS, READONLY, DEBUGGING
 12 .debug_ranges 00000220  00000000  00000000  00009784  2**0
                  CONTENTS, READONLY, DEBUGGING

Disassembly of section .text:

00000000 <__vectors>:
   0:	0c 94 2a 00 	jmp	0x54	; 0x54 <__ctors_end>
   4:	0c 94 08 04 	jmp	0x810	; 0x810 <__vector_1>
   8:	0c 94 2f 04 	jmp	0x85e	; 0x85e <__vector_2>
   c:	0c 94 56 04 	jmp	0x8ac	; 0x8ac <__vector_3>
  10:	0c 94 47 00 	jmp	0x8e	; 0x8e <__bad_interrupt>
  14:	0c 94 47 00 	jmp	0x8e	; 0x8e <__bad_interrupt>
  18:	0c 94 47 00 	jmp	0x8e	; 0x8e <__bad_interrupt>
  1c:	0c 94 47 00 	jmp	0x8e	; 0x8e <__bad_interrupt>
  20:	0c 94 47 00 	jmp	0x8e	; 0x8e <__bad_interrupt>
  24:	0c 94 47 00 	jmp	0x8e	; 0x8e <__bad_interrupt>
  28:	0c 94 7d 04 	jmp	0x8fa	; 0x8fa <__vector_10>
  2c:	0c 94 a6 04 	jmp	0x94c	; 0x94c <__vector_11>
  30:	0c 94 47 00 	jmp	0x8e	; 0x8e <__bad_interrupt>
  34:	0c 94 47 00 	jmp	0x8e	; 0x8e <__bad_interrupt>
  38:	0c 94 47 00 	jmp	0x8e	; 0x8e <__bad_interrupt>
  3c:	0c 94 47 00 	jmp	0x8e	; 0x8e <__bad_interrupt>
  40:	0c 94 94 02 	jmp	0x528	; 0x528 <__vector_16>
  44:	0c 94 47 00 	jmp	0x8e	; 0x8e <__bad_interrupt>
  48:	0c 94 47 00 	jmp	0x8e	; 0x8e <__bad_interrupt>
  4c:	0c 94 47 00 	jmp	0x8e	; 0x8e <__bad_interrupt>
  50:	0c 94 47 00 	jmp	0x8e	; 0x8e <__bad_interrupt>

00000054 <__ctors_end>:
  54:	11 24       	eor	r1, r1
  56:	1f be       	out	0x3f, r1	; 63
  58:	cf e5       	ldi	r28, 0x5F	; 95
  5a:	d8 e0       	ldi	r29, 0x08	; 8
  5c:	de bf       	out	0x3e, r29	; 62
  5e:	cd bf       	out	0x3d, r28	; 61

00000060 <__do_copy_data>:
  60:	10 e0       	ldi	r17, 0x00	; 0
  62:	a0 e6       	ldi	r26, 0x60	; 96
  64:	b0 e0       	ldi	r27, 0x00	; 0
  66:	ec e0       	ldi	r30, 0x0C	; 12
  68:	fa e0       	ldi	r31, 0x0A	; 10
  6a:	02 c0       	rjmp	.+4      	; 0x70 <__do_copy_data+0x10>
  6c:	05 90       	lpm	r0, Z+
  6e:	0d 92       	st	X+, r0
  70:	a6 39       	cpi	r26, 0x96	; 150
  72:	b1 07       	cpc	r27, r17
  74:	d9 f7       	brne	.-10     	; 0x6c <__do_copy_data+0xc>

00000076 <__do_clear_bss>:
  76:	20 e0       	ldi	r18, 0x00	; 0
  78:	a6 e9       	ldi	r26, 0x96	; 150
  7a:	b0 e0       	ldi	r27, 0x00	; 0
  7c:	01 c0       	rjmp	.+2      	; 0x80 <.do_clear_bss_start>

0000007e <.do_clear_bss_loop>:
  7e:	1d 92       	st	X+, r1

00000080 <.do_clear_bss_start>:
  80:	ac 3a       	cpi	r26, 0xAC	; 172
  82:	b2 07       	cpc	r27, r18
  84:	e1 f7       	brne	.-8      	; 0x7e <.do_clear_bss_loop>
  86:	0e 94 f0 01 	call	0x3e0	; 0x3e0 <main>
  8a:	0c 94 04 05 	jmp	0xa08	; 0xa08 <_exit>

0000008e <__bad_interrupt>:
  8e:	0c 94 00 00 	jmp	0	; 0x0 <__vectors>

00000092 <button_viInit>:


/***************** Funtions protypes **********************/

void button_viInit(void)
{
  92:	cf 93       	push	r28
	u8 buttonIndex =0;
	for(buttonIndex=0; buttonIndex < Buttons_count ; buttonIndex++)
  94:	c0 e0       	ldi	r28, 0x00	; 0
  96:	0e c0       	rjmp	.+28     	; 0xb4 <button_viInit+0x22>
	{
		dio_vidConfigChannel(Button_configurations[buttonIndex].bport,Button_configurations[buttonIndex].bchannel,INPUT);
  98:	ec 2f       	mov	r30, r28
  9a:	f0 e0       	ldi	r31, 0x00	; 0
  9c:	ee 0f       	add	r30, r30
  9e:	ff 1f       	adc	r31, r31
  a0:	ee 0f       	add	r30, r30
  a2:	ff 1f       	adc	r31, r31
  a4:	ef 59       	subi	r30, 0x9F	; 159
  a6:	ff 4f       	sbci	r31, 0xFF	; 255
  a8:	40 e0       	ldi	r20, 0x00	; 0
  aa:	62 81       	ldd	r22, Z+2	; 0x02
  ac:	81 81       	ldd	r24, Z+1	; 0x01
  ae:	0e 94 bd 02 	call	0x57a	; 0x57a <dio_vidConfigChannel>
/***************** Funtions protypes **********************/

void button_viInit(void)
{
	u8 buttonIndex =0;
	for(buttonIndex=0; buttonIndex < Buttons_count ; buttonIndex++)
  b2:	cf 5f       	subi	r28, 0xFF	; 255
  b4:	80 91 60 00 	lds	r24, 0x0060	; 0x800060 <__DATA_REGION_ORIGIN__>
  b8:	c8 17       	cp	r28, r24
  ba:	70 f3       	brcs	.-36     	; 0x98 <button_viInit+0x6>
	{
		dio_vidConfigChannel(Button_configurations[buttonIndex].bport,Button_configurations[buttonIndex].bchannel,INPUT);
	}
}
  bc:	cf 91       	pop	r28
  be:	08 95       	ret

000000c0 <LCD_lcd_kick>:
	#else
		//round up by default
		__ticks_dc = (uint32_t)(ceil(fabs(__tmp)));
	#endif

	__builtin_avr_delay_cycles(__ticks_dc);
  c0:	41 e0       	ldi	r20, 0x01	; 1
  c2:	62 e0       	ldi	r22, 0x02	; 2
  c4:	80 e0       	ldi	r24, 0x00	; 0
  c6:	0e 94 2a 03 	call	0x654	; 0x654 <dio_vidWriteChannel>
  ca:	8f e9       	ldi	r24, 0x9F	; 159
  cc:	9f e0       	ldi	r25, 0x0F	; 15
  ce:	01 97       	sbiw	r24, 0x01	; 1
  d0:	f1 f7       	brne	.-4      	; 0xce <LCD_lcd_kick+0xe>
  d2:	00 c0       	rjmp	.+0      	; 0xd4 <LCD_lcd_kick+0x14>
  d4:	00 00       	nop
  d6:	40 e0       	ldi	r20, 0x00	; 0
  d8:	62 e0       	ldi	r22, 0x02	; 2
  da:	80 e0       	ldi	r24, 0x00	; 0
  dc:	0e 94 2a 03 	call	0x654	; 0x654 <dio_vidWriteChannel>
  e0:	8f e9       	ldi	r24, 0x9F	; 159
  e2:	9f e0       	ldi	r25, 0x0F	; 15
  e4:	01 97       	sbiw	r24, 0x01	; 1
  e6:	f1 f7       	brne	.-4      	; 0xe4 <LCD_lcd_kick+0x24>
  e8:	00 c0       	rjmp	.+0      	; 0xea <LCD_lcd_kick+0x2a>
  ea:	00 00       	nop
  ec:	08 95       	ret

000000ee <LCD_SendCommand>:
  ee:	cf 93       	push	r28
  f0:	c8 2f       	mov	r28, r24
  f2:	40 e0       	ldi	r20, 0x00	; 0
  f4:	63 e0       	ldi	r22, 0x03	; 3
  f6:	80 e0       	ldi	r24, 0x00	; 0
  f8:	0e 94 2a 03 	call	0x654	; 0x654 <dio_vidWriteChannel>
  fc:	40 e0       	ldi	r20, 0x00	; 0
  fe:	69 e0       	ldi	r22, 0x09	; 9
 100:	80 e0       	ldi	r24, 0x00	; 0
 102:	0e 94 2a 03 	call	0x654	; 0x654 <dio_vidWriteChannel>
 106:	c4 fb       	bst	r28, 4
 108:	44 27       	eor	r20, r20
 10a:	40 f9       	bld	r20, 0
 10c:	60 e0       	ldi	r22, 0x00	; 0
 10e:	81 e0       	ldi	r24, 0x01	; 1
 110:	0e 94 2a 03 	call	0x654	; 0x654 <dio_vidWriteChannel>
 114:	c5 fb       	bst	r28, 5
 116:	44 27       	eor	r20, r20
 118:	40 f9       	bld	r20, 0
 11a:	61 e0       	ldi	r22, 0x01	; 1
 11c:	81 e0       	ldi	r24, 0x01	; 1
 11e:	0e 94 2a 03 	call	0x654	; 0x654 <dio_vidWriteChannel>
 122:	c6 fb       	bst	r28, 6
 124:	44 27       	eor	r20, r20
 126:	40 f9       	bld	r20, 0
 128:	62 e0       	ldi	r22, 0x02	; 2
 12a:	81 e0       	ldi	r24, 0x01	; 1
 12c:	0e 94 2a 03 	call	0x654	; 0x654 <dio_vidWriteChannel>
 130:	4c 2f       	mov	r20, r28
 132:	44 1f       	adc	r20, r20
 134:	44 27       	eor	r20, r20
 136:	44 1f       	adc	r20, r20
 138:	64 e0       	ldi	r22, 0x04	; 4
 13a:	81 e0       	ldi	r24, 0x01	; 1
 13c:	0e 94 2a 03 	call	0x654	; 0x654 <dio_vidWriteChannel>
 140:	0e 94 60 00 	call	0xc0	; 0xc0 <LCD_lcd_kick>
 144:	4c 2f       	mov	r20, r28
 146:	41 70       	andi	r20, 0x01	; 1
 148:	60 e0       	ldi	r22, 0x00	; 0
 14a:	81 e0       	ldi	r24, 0x01	; 1
 14c:	0e 94 2a 03 	call	0x654	; 0x654 <dio_vidWriteChannel>
 150:	c1 fb       	bst	r28, 1
 152:	44 27       	eor	r20, r20
 154:	40 f9       	bld	r20, 0
 156:	61 e0       	ldi	r22, 0x01	; 1
 158:	81 e0       	ldi	r24, 0x01	; 1
 15a:	0e 94 2a 03 	call	0x654	; 0x654 <dio_vidWriteChannel>
 15e:	c2 fb       	bst	r28, 2
 160:	44 27       	eor	r20, r20
 162:	40 f9       	bld	r20, 0
 164:	62 e0       	ldi	r22, 0x02	; 2
 166:	81 e0       	ldi	r24, 0x01	; 1
 168:	0e 94 2a 03 	call	0x654	; 0x654 <dio_vidWriteChannel>
 16c:	c3 fb       	bst	r28, 3
 16e:	44 27       	eor	r20, r20
 170:	40 f9       	bld	r20, 0
 172:	64 e0       	ldi	r22, 0x04	; 4
 174:	81 e0       	ldi	r24, 0x01	; 1
 176:	0e 94 2a 03 	call	0x654	; 0x654 <dio_vidWriteChannel>
 17a:	0e 94 60 00 	call	0xc0	; 0xc0 <LCD_lcd_kick>
 17e:	cf 91       	pop	r28
 180:	08 95       	ret

00000182 <LCD_WriteData>:
 182:	cf 93       	push	r28
 184:	c8 2f       	mov	r28, r24
 186:	41 e0       	ldi	r20, 0x01	; 1
 188:	63 e0       	ldi	r22, 0x03	; 3
 18a:	80 e0       	ldi	r24, 0x00	; 0
 18c:	0e 94 2a 03 	call	0x654	; 0x654 <dio_vidWriteChannel>
 190:	40 e0       	ldi	r20, 0x00	; 0
 192:	69 e0       	ldi	r22, 0x09	; 9
 194:	80 e0       	ldi	r24, 0x00	; 0
 196:	0e 94 2a 03 	call	0x654	; 0x654 <dio_vidWriteChannel>
 19a:	c4 fb       	bst	r28, 4
 19c:	44 27       	eor	r20, r20
 19e:	40 f9       	bld	r20, 0
 1a0:	60 e0       	ldi	r22, 0x00	; 0
 1a2:	81 e0       	ldi	r24, 0x01	; 1
 1a4:	0e 94 2a 03 	call	0x654	; 0x654 <dio_vidWriteChannel>
 1a8:	c5 fb       	bst	r28, 5
 1aa:	44 27       	eor	r20, r20
 1ac:	40 f9       	bld	r20, 0
 1ae:	61 e0       	ldi	r22, 0x01	; 1
 1b0:	81 e0       	ldi	r24, 0x01	; 1
 1b2:	0e 94 2a 03 	call	0x654	; 0x654 <dio_vidWriteChannel>
 1b6:	c6 fb       	bst	r28, 6
 1b8:	44 27       	eor	r20, r20
 1ba:	40 f9       	bld	r20, 0
 1bc:	62 e0       	ldi	r22, 0x02	; 2
 1be:	81 e0       	ldi	r24, 0x01	; 1
 1c0:	0e 94 2a 03 	call	0x654	; 0x654 <dio_vidWriteChannel>
 1c4:	4c 2f       	mov	r20, r28
 1c6:	44 1f       	adc	r20, r20
 1c8:	44 27       	eor	r20, r20
 1ca:	44 1f       	adc	r20, r20
 1cc:	64 e0       	ldi	r22, 0x04	; 4
 1ce:	81 e0       	ldi	r24, 0x01	; 1
 1d0:	0e 94 2a 03 	call	0x654	; 0x654 <dio_vidWriteChannel>
 1d4:	0e 94 60 00 	call	0xc0	; 0xc0 <LCD_lcd_kick>
 1d8:	4c 2f       	mov	r20, r28
 1da:	41 70       	andi	r20, 0x01	; 1
 1dc:	60 e0       	ldi	r22, 0x00	; 0
 1de:	81 e0       	ldi	r24, 0x01	; 1
 1e0:	0e 94 2a 03 	call	0x654	; 0x654 <dio_vidWriteChannel>
 1e4:	c1 fb       	bst	r28, 1
 1e6:	44 27       	eor	r20, r20
 1e8:	40 f9       	bld	r20, 0
 1ea:	61 e0       	ldi	r22, 0x01	; 1
 1ec:	81 e0       	ldi	r24, 0x01	; 1
 1ee:	0e 94 2a 03 	call	0x654	; 0x654 <dio_vidWriteChannel>
 1f2:	c2 fb       	bst	r28, 2
 1f4:	44 27       	eor	r20, r20
 1f6:	40 f9       	bld	r20, 0
 1f8:	62 e0       	ldi	r22, 0x02	; 2
 1fa:	81 e0       	ldi	r24, 0x01	; 1
 1fc:	0e 94 2a 03 	call	0x654	; 0x654 <dio_vidWriteChannel>
 200:	c3 fb       	bst	r28, 3
 202:	44 27       	eor	r20, r20
 204:	40 f9       	bld	r20, 0
 206:	64 e0       	ldi	r22, 0x04	; 4
 208:	81 e0       	ldi	r24, 0x01	; 1
 20a:	0e 94 2a 03 	call	0x654	; 0x654 <dio_vidWriteChannel>
 20e:	0e 94 60 00 	call	0xc0	; 0xc0 <LCD_lcd_kick>
 212:	cf 91       	pop	r28
 214:	08 95       	ret

00000216 <LCD_Init>:
 216:	41 e0       	ldi	r20, 0x01	; 1
 218:	63 e0       	ldi	r22, 0x03	; 3
 21a:	80 e0       	ldi	r24, 0x00	; 0
 21c:	0e 94 bd 02 	call	0x57a	; 0x57a <dio_vidConfigChannel>
 220:	41 e0       	ldi	r20, 0x01	; 1
 222:	62 e0       	ldi	r22, 0x02	; 2
 224:	80 e0       	ldi	r24, 0x00	; 0
 226:	0e 94 bd 02 	call	0x57a	; 0x57a <dio_vidConfigChannel>
 22a:	41 e0       	ldi	r20, 0x01	; 1
 22c:	69 e0       	ldi	r22, 0x09	; 9
 22e:	80 e0       	ldi	r24, 0x00	; 0
 230:	0e 94 bd 02 	call	0x57a	; 0x57a <dio_vidConfigChannel>
 234:	41 e0       	ldi	r20, 0x01	; 1
 236:	60 e0       	ldi	r22, 0x00	; 0
 238:	81 e0       	ldi	r24, 0x01	; 1
 23a:	0e 94 bd 02 	call	0x57a	; 0x57a <dio_vidConfigChannel>
 23e:	41 e0       	ldi	r20, 0x01	; 1
 240:	61 e0       	ldi	r22, 0x01	; 1
 242:	81 e0       	ldi	r24, 0x01	; 1
 244:	0e 94 bd 02 	call	0x57a	; 0x57a <dio_vidConfigChannel>
 248:	41 e0       	ldi	r20, 0x01	; 1
 24a:	62 e0       	ldi	r22, 0x02	; 2
 24c:	81 e0       	ldi	r24, 0x01	; 1
 24e:	0e 94 bd 02 	call	0x57a	; 0x57a <dio_vidConfigChannel>
 252:	41 e0       	ldi	r20, 0x01	; 1
 254:	64 e0       	ldi	r22, 0x04	; 4
 256:	81 e0       	ldi	r24, 0x01	; 1
 258:	0e 94 bd 02 	call	0x57a	; 0x57a <dio_vidConfigChannel>
 25c:	81 e0       	ldi	r24, 0x01	; 1
 25e:	0e 94 77 00 	call	0xee	; 0xee <LCD_SendCommand>
 262:	82 e0       	ldi	r24, 0x02	; 2
 264:	0e 94 77 00 	call	0xee	; 0xee <LCD_SendCommand>
 268:	88 e2       	ldi	r24, 0x28	; 40
 26a:	0e 94 77 00 	call	0xee	; 0xee <LCD_SendCommand>
 26e:	86 e0       	ldi	r24, 0x06	; 6
 270:	0e 94 77 00 	call	0xee	; 0xee <LCD_SendCommand>
 274:	8f e0       	ldi	r24, 0x0F	; 15
 276:	0e 94 77 00 	call	0xee	; 0xee <LCD_SendCommand>
 27a:	08 95       	ret

0000027c <LCD_GoToXY>:

}

void LCD_GoToXY(u8 row, u8 col)
{
	 if (row ==0)
 27c:	81 11       	cpse	r24, r1
 27e:	05 c0       	rjmp	.+10     	; 0x28a <LCD_GoToXY+0xe>
	{
		LCD_SendCommand(LCD_CMD_SET_DDRAM +col );
 280:	80 e8       	ldi	r24, 0x80	; 128
 282:	86 0f       	add	r24, r22
 284:	0e 94 77 00 	call	0xee	; 0xee <LCD_SendCommand>
 288:	08 95       	ret
	}
	else if (row==1)
 28a:	81 30       	cpi	r24, 0x01	; 1
 28c:	29 f4       	brne	.+10     	; 0x298 <LCD_GoToXY+0x1c>
	{
		LCD_SendCommand(LCD_CMD_SET_DDRAM + 0x40 +col );
 28e:	80 ec       	ldi	r24, 0xC0	; 192
 290:	86 0f       	add	r24, r22
 292:	0e 94 77 00 	call	0xee	; 0xee <LCD_SendCommand>
 296:	08 95       	ret
	}
	else if(row == 2)
 298:	82 30       	cpi	r24, 0x02	; 2
 29a:	29 f4       	brne	.+10     	; 0x2a6 <LCD_GoToXY+0x2a>
	{
		LCD_SendCommand(LCD_CMD_SET_DDRAM + 0x14 +col );
 29c:	84 e9       	ldi	r24, 0x94	; 148
 29e:	86 0f       	add	r24, r22
 2a0:	0e 94 77 00 	call	0xee	; 0xee <LCD_SendCommand>
 2a4:	08 95       	ret
	}
	else if(row == 3)
 2a6:	83 30       	cpi	r24, 0x03	; 3
 2a8:	21 f4       	brne	.+8      	; 0x2b2 <LCD_GoToXY+0x36>
	{
		LCD_SendCommand(LCD_CMD_SET_DDRAM + 0x54 +col );
 2aa:	84 ed       	ldi	r24, 0xD4	; 212
 2ac:	86 0f       	add	r24, r22
 2ae:	0e 94 77 00 	call	0xee	; 0xee <LCD_SendCommand>
 2b2:	08 95       	ret

000002b4 <LCD_WriteChar>:
#endif
}


void LCD_WriteChar(u8 ch, u8 row, u8 col)
{
 2b4:	cf 93       	push	r28
 2b6:	c8 2f       	mov	r28, r24
 2b8:	86 2f       	mov	r24, r22
	LCD_GoToXY(row,col);
 2ba:	64 2f       	mov	r22, r20
 2bc:	0e 94 3e 01 	call	0x27c	; 0x27c <LCD_GoToXY>
	LCD_WriteData(ch);
 2c0:	8c 2f       	mov	r24, r28
 2c2:	0e 94 c1 00 	call	0x182	; 0x182 <LCD_WriteData>
	
}
 2c6:	cf 91       	pop	r28
 2c8:	08 95       	ret

000002ca <LCD_WriteString>:

}


void LCD_WriteString(char *str,u8 row, u8 col)
{
 2ca:	ff 92       	push	r15
 2cc:	0f 93       	push	r16
 2ce:	1f 93       	push	r17
 2d0:	cf 93       	push	r28
 2d2:	df 93       	push	r29
 2d4:	8c 01       	movw	r16, r24
 2d6:	f6 2e       	mov	r15, r22
 2d8:	d4 2f       	mov	r29, r20
	LCD_GoToXY(row,col);
 2da:	64 2f       	mov	r22, r20
 2dc:	8f 2d       	mov	r24, r15
 2de:	0e 94 3e 01 	call	0x27c	; 0x27c <LCD_GoToXY>

	for (u8 index = 0; str[index] ; index++)
 2e2:	c0 e0       	ldi	r28, 0x00	; 0
 2e4:	0e c0       	rjmp	.+28     	; 0x302 <LCD_WriteString+0x38>
	{
		LCD_WriteData(str[index]);
 2e6:	0e 94 c1 00 	call	0x182	; 0x182 <LCD_WriteData>
		if((index+col) > LCD_NUM_OF_COLUMBS)
 2ea:	8d 2f       	mov	r24, r29
 2ec:	90 e0       	ldi	r25, 0x00	; 0
 2ee:	8c 0f       	add	r24, r28
 2f0:	91 1d       	adc	r25, r1
 2f2:	45 97       	sbiw	r24, 0x15	; 21
 2f4:	2c f0       	brlt	.+10     	; 0x300 <LCD_WriteString+0x36>
		{
			LCD_GoToXY(++row,0);
 2f6:	f3 94       	inc	r15
 2f8:	60 e0       	ldi	r22, 0x00	; 0
 2fa:	8f 2d       	mov	r24, r15
 2fc:	0e 94 3e 01 	call	0x27c	; 0x27c <LCD_GoToXY>

void LCD_WriteString(char *str,u8 row, u8 col)
{
	LCD_GoToXY(row,col);

	for (u8 index = 0; str[index] ; index++)
 300:	cf 5f       	subi	r28, 0xFF	; 255
 302:	f8 01       	movw	r30, r16
 304:	ec 0f       	add	r30, r28
 306:	f1 1d       	adc	r31, r1
 308:	80 81       	ld	r24, Z
 30a:	81 11       	cpse	r24, r1
 30c:	ec cf       	rjmp	.-40     	; 0x2e6 <LCD_WriteString+0x1c>
		if((index+col) > LCD_NUM_OF_COLUMBS)
		{
			LCD_GoToXY(++row,0);
		}
	}
}
 30e:	df 91       	pop	r29
 310:	cf 91       	pop	r28
 312:	1f 91       	pop	r17
 314:	0f 91       	pop	r16
 316:	ff 90       	pop	r15
 318:	08 95       	ret

0000031a <led_viInit>:
		}
		
	}
	
	
}
 31a:	cf 93       	push	r28
 31c:	c0 e0       	ldi	r28, 0x00	; 0
 31e:	0e c0       	rjmp	.+28     	; 0x33c <led_viInit+0x22>
 320:	ec 2f       	mov	r30, r28
 322:	f0 e0       	ldi	r31, 0x00	; 0
 324:	ee 0f       	add	r30, r30
 326:	ff 1f       	adc	r31, r31
 328:	ee 0f       	add	r30, r30
 32a:	ff 1f       	adc	r31, r31
 32c:	ee 58       	subi	r30, 0x8E	; 142
 32e:	ff 4f       	sbci	r31, 0xFF	; 255
 330:	41 e0       	ldi	r20, 0x01	; 1
 332:	62 81       	ldd	r22, Z+2	; 0x02
 334:	81 81       	ldd	r24, Z+1	; 0x01
 336:	0e 94 bd 02 	call	0x57a	; 0x57a <dio_vidConfigChannel>
 33a:	cf 5f       	subi	r28, 0xFF	; 255
 33c:	80 91 71 00 	lds	r24, 0x0071	; 0x800071 <ledsCount>
 340:	c8 17       	cp	r28, r24
 342:	70 f3       	brcs	.-36     	; 0x320 <led_viInit+0x6>
 344:	cf 91       	pop	r28
 346:	08 95       	ret

00000348 <led_viToggle>:
void led_viToggle(Led_t ledx)
{
 348:	cf 93       	push	r28
 34a:	df 93       	push	r29
 34c:	d8 2f       	mov	r29, r24
	u8 ledIndex=0;
	for(ledIndex=0 ; ledIndex < ledsCount ; ledIndex++)
 34e:	c0 e0       	ldi	r28, 0x00	; 0
 350:	18 c0       	rjmp	.+48     	; 0x382 <led_viToggle+0x3a>
	{
		if(ledsConfigurations[ledIndex].ledn == ledx)
 352:	ec 2f       	mov	r30, r28
 354:	f0 e0       	ldi	r31, 0x00	; 0
 356:	ee 0f       	add	r30, r30
 358:	ff 1f       	adc	r31, r31
 35a:	ee 0f       	add	r30, r30
 35c:	ff 1f       	adc	r31, r31
 35e:	ee 58       	subi	r30, 0x8E	; 142
 360:	ff 4f       	sbci	r31, 0xFF	; 255
 362:	80 81       	ld	r24, Z
 364:	8d 13       	cpse	r24, r29
 366:	0c c0       	rjmp	.+24     	; 0x380 <led_viToggle+0x38>
		{
			dio_vidFlipChannel(ledsConfigurations[ledx].portn,ledsConfigurations[ledx].ledchannel);
 368:	ed 2f       	mov	r30, r29
 36a:	f0 e0       	ldi	r31, 0x00	; 0
 36c:	ee 0f       	add	r30, r30
 36e:	ff 1f       	adc	r31, r31
 370:	ee 0f       	add	r30, r30
 372:	ff 1f       	adc	r31, r31
 374:	ee 58       	subi	r30, 0x8E	; 142
 376:	ff 4f       	sbci	r31, 0xFF	; 255
 378:	62 81       	ldd	r22, Z+2	; 0x02
 37a:	81 81       	ldd	r24, Z+1	; 0x01
 37c:	0e 94 97 03 	call	0x72e	; 0x72e <dio_vidFlipChannel>
	
}
void led_viToggle(Led_t ledx)
{
	u8 ledIndex=0;
	for(ledIndex=0 ; ledIndex < ledsCount ; ledIndex++)
 380:	cf 5f       	subi	r28, 0xFF	; 255
 382:	80 91 71 00 	lds	r24, 0x0071	; 0x800071 <ledsCount>
 386:	c8 17       	cp	r28, r24
 388:	20 f3       	brcs	.-56     	; 0x352 <led_viToggle+0xa>
		
		}
		
	}
		
}
 38a:	df 91       	pop	r29
 38c:	cf 91       	pop	r28
 38e:	08 95       	ret

00000390 <EXTI_Isr>:
volatile u8 i = 0;


void EXTI_Isr()
{
    led_viToggle(LED_RED);
 390:	82 e0       	ldi	r24, 0x02	; 2
 392:	0e 94 a4 01 	call	0x348	; 0x348 <led_viToggle>
 396:	08 95       	ret

00000398 <ADC_ISR>:
}

void ADC_ISR()
{
    ADCFlag = 1;
 398:	81 e0       	ldi	r24, 0x01	; 1
 39a:	80 93 97 00 	sts	0x0097, r24	; 0x800097 <ADCFlag>
    ADCval[i] = ADC;
 39e:	e0 91 96 00 	lds	r30, 0x0096	; 0x800096 <__data_end>
 3a2:	f0 e0       	ldi	r31, 0x00	; 0
 3a4:	84 b1       	in	r24, 0x04	; 4
 3a6:	95 b1       	in	r25, 0x05	; 5
 3a8:	ee 0f       	add	r30, r30
 3aa:	ff 1f       	adc	r31, r31
 3ac:	e8 56       	subi	r30, 0x68	; 104
 3ae:	ff 4f       	sbci	r31, 0xFF	; 255
 3b0:	91 83       	std	Z+1, r25	; 0x01
 3b2:	80 83       	st	Z, r24
	i++;
 3b4:	80 91 96 00 	lds	r24, 0x0096	; 0x800096 <__data_end>
 3b8:	8f 5f       	subi	r24, 0xFF	; 255
 3ba:	80 93 96 00 	sts	0x0096, r24	; 0x800096 <__data_end>
    led_viToggle(LED_BLUE);
 3be:	83 e0       	ldi	r24, 0x03	; 3
 3c0:	0e 94 a4 01 	call	0x348	; 0x348 <led_viToggle>
	if(i==4)
 3c4:	80 91 96 00 	lds	r24, 0x0096	; 0x800096 <__data_end>
 3c8:	84 30       	cpi	r24, 0x04	; 4
 3ca:	11 f4       	brne	.+4      	; 0x3d0 <ADC_ISR+0x38>
	{
	i=0;
 3cc:	10 92 96 00 	sts	0x0096, r1	; 0x800096 <__data_end>
	
	}
	ADMUX &= 0x70; /* Bits 4:0 – MUX4:0: Analog Channel and Gain Selection Bits */
 3d0:	87 b1       	in	r24, 0x07	; 7
 3d2:	80 77       	andi	r24, 0x70	; 112
 3d4:	87 b9       	out	0x07, r24	; 7
	ADMUX |= ((i << 4) & 0x0f);
 3d6:	80 91 96 00 	lds	r24, 0x0096	; 0x800096 <__data_end>
 3da:	87 b1       	in	r24, 0x07	; 7
 3dc:	87 b9       	out	0x07, r24	; 7
 3de:	08 95       	ret

000003e0 <main>:
    
}

int main(void)
{
 3e0:	cf 93       	push	r28
 3e2:	df 93       	push	r29
 3e4:	cd b7       	in	r28, 0x3d	; 61
 3e6:	de b7       	in	r29, 0x3e	; 62
 3e8:	2a 97       	sbiw	r28, 0x0a	; 10
 3ea:	0f b6       	in	r0, 0x3f	; 63
 3ec:	f8 94       	cli
 3ee:	de bf       	out	0x3e, r29	; 62
 3f0:	0f be       	out	0x3f, r0	; 63
 3f2:	cd bf       	out	0x3d, r28	; 61

    led_viInit();
 3f4:	0e 94 8d 01 	call	0x31a	; 0x31a <led_viInit>
    LCD_Init();
 3f8:	0e 94 0b 01 	call	0x216	; 0x216 <LCD_Init>
    button_viInit();
 3fc:	0e 94 49 00 	call	0x92	; 0x92 <button_viInit>

    EXTI_Init(EXTI_0, RISINING_EDGE);
 400:	63 e0       	ldi	r22, 0x03	; 3
 402:	80 e0       	ldi	r24, 0x00	; 0
 404:	0e 94 cb 03 	call	0x796	; 0x796 <EXTI_Init>
    EXTI_voidSetCallbackFunction(EXTI_0, EXTI_Isr);
 408:	68 ec       	ldi	r22, 0xC8	; 200
 40a:	71 e0       	ldi	r23, 0x01	; 1
 40c:	80 e0       	ldi	r24, 0x00	; 0
 40e:	0e 94 f3 03 	call	0x7e6	; 0x7e6 <EXTI_voidSetCallbackFunction>

    ADC_voidInit(&ADC_configurations[0]);
 412:	82 e8       	ldi	r24, 0x82	; 130
 414:	90 e0       	ldi	r25, 0x00	; 0
 416:	0e 94 4a 02 	call	0x494	; 0x494 <ADC_voidInit>
    ADC_voidEnable();
 41a:	0e 94 83 02 	call	0x506	; 0x506 <ADC_voidEnable>
    ADC_voidInterrputEnable();
 41e:	0e 94 87 02 	call	0x50e	; 0x50e <ADC_voidInterrputEnable>

    ADC_voidSetCallbackFun(ADC_ISR);
 422:	8c ec       	ldi	r24, 0xCC	; 204
 424:	91 e0       	ldi	r25, 0x01	; 1
 426:	0e 94 8f 02 	call	0x51e	; 0x51e <ADC_voidSetCallbackFun>
    GIE_ENABLE();
 42a:	8f b7       	in	r24, 0x3f	; 63
 42c:	80 68       	ori	r24, 0x80	; 128
 42e:	8f bf       	out	0x3f, r24	; 63

    char str[10];
    ADC_voidStartConversion();
 430:	0e 94 8b 02 	call	0x516	; 0x516 <ADC_voidStartConversion>

    while (1)
    {
        if (ADCFlag == 1)
 434:	80 91 97 00 	lds	r24, 0x0097	; 0x800097 <ADCFlag>
 438:	81 30       	cpi	r24, 0x01	; 1
 43a:	e1 f7       	brne	.-8      	; 0x434 <__EEPROM_REGION_LENGTH__+0x34>
        {

            ADCFlag = 0;
 43c:	10 92 97 00 	sts	0x0097, r1	; 0x800097 <ADCFlag>
            itoa(ADCval[i], str, 10);
 440:	e0 91 96 00 	lds	r30, 0x0096	; 0x800096 <__data_end>
 444:	f0 e0       	ldi	r31, 0x00	; 0
 446:	ee 0f       	add	r30, r30
 448:	ff 1f       	adc	r31, r31
 44a:	e8 56       	subi	r30, 0x68	; 104
 44c:	ff 4f       	sbci	r31, 0xFF	; 255
    } else if (__radix < 2 || __radix > 36) {
	*__s = 0;
	return __s;
    } else {
	extern char *__itoa_ncheck (int, char *, unsigned char);
	return __itoa_ncheck (__val, __s, __radix);
 44e:	4a e0       	ldi	r20, 0x0A	; 10
 450:	be 01       	movw	r22, r28
 452:	6f 5f       	subi	r22, 0xFF	; 255
 454:	7f 4f       	sbci	r23, 0xFF	; 255
 456:	80 81       	ld	r24, Z
 458:	91 81       	ldd	r25, Z+1	; 0x01
 45a:	0e 94 cf 04 	call	0x99e	; 0x99e <__itoa_ncheck>
            LCD_WriteString(str, i, 0);
 45e:	60 91 96 00 	lds	r22, 0x0096	; 0x800096 <__data_end>
 462:	40 e0       	ldi	r20, 0x00	; 0
 464:	ce 01       	movw	r24, r28
 466:	01 96       	adiw	r24, 0x01	; 1
 468:	0e 94 65 01 	call	0x2ca	; 0x2ca <LCD_WriteString>
			LCD_WriteChar(i+48, i, 6);
 46c:	60 91 96 00 	lds	r22, 0x0096	; 0x800096 <__data_end>
 470:	80 91 96 00 	lds	r24, 0x0096	; 0x800096 <__data_end>
 474:	46 e0       	ldi	r20, 0x06	; 6
 476:	80 5d       	subi	r24, 0xD0	; 208
 478:	0e 94 5a 01 	call	0x2b4	; 0x2b4 <LCD_WriteChar>
 47c:	2f ef       	ldi	r18, 0xFF	; 255
 47e:	83 ed       	ldi	r24, 0xD3	; 211
 480:	90 e3       	ldi	r25, 0x30	; 48
 482:	21 50       	subi	r18, 0x01	; 1
 484:	80 40       	sbci	r24, 0x00	; 0
 486:	90 40       	sbci	r25, 0x00	; 0
 488:	e1 f7       	brne	.-8      	; 0x482 <__EEPROM_REGION_LENGTH__+0x82>
 48a:	00 c0       	rjmp	.+0      	; 0x48c <__EEPROM_REGION_LENGTH__+0x8c>
 48c:	00 00       	nop
            _delay_ms(1000);
    //ADC_voidInit(&ADC_configurations[i]);
	/*channel selection*/
	
    
            ADC_voidStartConversion();
 48e:	0e 94 8b 02 	call	0x516	; 0x516 <ADC_voidStartConversion>
 492:	d0 cf       	rjmp	.-96     	; 0x434 <__EEPROM_REGION_LENGTH__+0x34>

00000494 <ADC_voidInit>:
			;

		copyofreadingsArr[channelIndex] = ADC_u16ReadADC(&ADC_configurations[channelIndex]);
		channelIndex++;
	}
}
 494:	fc 01       	movw	r30, r24
 496:	87 b1       	in	r24, 0x07	; 7
 498:	8f 73       	andi	r24, 0x3F	; 63
 49a:	87 b9       	out	0x07, r24	; 7
 49c:	87 b1       	in	r24, 0x07	; 7
 49e:	91 81       	ldd	r25, Z+1	; 0x01
 4a0:	20 e4       	ldi	r18, 0x40	; 64
 4a2:	92 9f       	mul	r25, r18
 4a4:	a0 01       	movw	r20, r0
 4a6:	11 24       	eor	r1, r1
 4a8:	48 2b       	or	r20, r24
 4aa:	47 b9       	out	0x07, r20	; 7
 4ac:	87 b1       	in	r24, 0x07	; 7
 4ae:	8f 7d       	andi	r24, 0xDF	; 223
 4b0:	87 b9       	out	0x07, r24	; 7
 4b2:	87 b1       	in	r24, 0x07	; 7
 4b4:	92 81       	ldd	r25, Z+2	; 0x02
 4b6:	29 2f       	mov	r18, r25
 4b8:	21 70       	andi	r18, 0x01	; 1
 4ba:	30 e0       	ldi	r19, 0x00	; 0
 4bc:	22 0f       	add	r18, r18
 4be:	33 1f       	adc	r19, r19
 4c0:	22 95       	swap	r18
 4c2:	32 95       	swap	r19
 4c4:	30 7f       	andi	r19, 0xF0	; 240
 4c6:	32 27       	eor	r19, r18
 4c8:	20 7f       	andi	r18, 0xF0	; 240
 4ca:	32 27       	eor	r19, r18
 4cc:	28 2b       	or	r18, r24
 4ce:	27 b9       	out	0x07, r18	; 7
 4d0:	87 b1       	in	r24, 0x07	; 7
 4d2:	80 77       	andi	r24, 0x70	; 112
 4d4:	87 b9       	out	0x07, r24	; 7
 4d6:	87 b1       	in	r24, 0x07	; 7
 4d8:	87 b9       	out	0x07, r24	; 7
 4da:	86 b1       	in	r24, 0x06	; 6
 4dc:	88 7f       	andi	r24, 0xF8	; 248
 4de:	86 b9       	out	0x06, r24	; 6
 4e0:	96 b1       	in	r25, 0x06	; 6
 4e2:	84 81       	ldd	r24, Z+4	; 0x04
 4e4:	87 70       	andi	r24, 0x07	; 7
 4e6:	89 2b       	or	r24, r25
 4e8:	86 b9       	out	0x06, r24	; 6
 4ea:	4a b3       	in	r20, 0x1a	; 26
 4ec:	21 e0       	ldi	r18, 0x01	; 1
 4ee:	30 e0       	ldi	r19, 0x00	; 0
 4f0:	c9 01       	movw	r24, r18
 4f2:	00 80       	ld	r0, Z
 4f4:	02 c0       	rjmp	.+4      	; 0x4fa <ADC_voidInit+0x66>
 4f6:	88 0f       	add	r24, r24
 4f8:	99 1f       	adc	r25, r25
 4fa:	0a 94       	dec	r0
 4fc:	e2 f7       	brpl	.-8      	; 0x4f6 <ADC_voidInit+0x62>
 4fe:	80 95       	com	r24
 500:	84 23       	and	r24, r20
 502:	8a bb       	out	0x1a, r24	; 26
 504:	08 95       	ret

00000506 <ADC_voidEnable>:
 506:	86 b1       	in	r24, 0x06	; 6
 508:	80 68       	ori	r24, 0x80	; 128
 50a:	86 b9       	out	0x06, r24	; 6
 50c:	08 95       	ret

0000050e <ADC_voidInterrputEnable>:
 50e:	86 b1       	in	r24, 0x06	; 6
 510:	88 60       	ori	r24, 0x08	; 8
 512:	86 b9       	out	0x06, r24	; 6
 514:	08 95       	ret

00000516 <ADC_voidStartConversion>:
 516:	86 b1       	in	r24, 0x06	; 6
 518:	80 64       	ori	r24, 0x40	; 64
 51a:	86 b9       	out	0x06, r24	; 6
 51c:	08 95       	ret

0000051e <ADC_voidSetCallbackFun>:
 51e:	90 93 a1 00 	sts	0x00A1, r25	; 0x8000a1 <GP_ADC_Callback+0x1>
 522:	80 93 a0 00 	sts	0x00A0, r24	; 0x8000a0 <GP_ADC_Callback>
 526:	08 95       	ret

00000528 <__vector_16>:

/* vector of ADC interrupt */
void __vector_16(void) __attribute__((signal, used));
void __vector_16(void)
{
 528:	1f 92       	push	r1
 52a:	0f 92       	push	r0
 52c:	0f b6       	in	r0, 0x3f	; 63
 52e:	0f 92       	push	r0
 530:	11 24       	eor	r1, r1
 532:	2f 93       	push	r18
 534:	3f 93       	push	r19
 536:	4f 93       	push	r20
 538:	5f 93       	push	r21
 53a:	6f 93       	push	r22
 53c:	7f 93       	push	r23
 53e:	8f 93       	push	r24
 540:	9f 93       	push	r25
 542:	af 93       	push	r26
 544:	bf 93       	push	r27
 546:	ef 93       	push	r30
 548:	ff 93       	push	r31
	if (GP_ADC_Callback != NULL)
 54a:	e0 91 a0 00 	lds	r30, 0x00A0	; 0x8000a0 <GP_ADC_Callback>
 54e:	f0 91 a1 00 	lds	r31, 0x00A1	; 0x8000a1 <GP_ADC_Callback+0x1>
 552:	30 97       	sbiw	r30, 0x00	; 0
 554:	09 f0       	breq	.+2      	; 0x558 <__vector_16+0x30>
	{
		GP_ADC_Callback();
 556:	09 95       	icall
	}
}
 558:	ff 91       	pop	r31
 55a:	ef 91       	pop	r30
 55c:	bf 91       	pop	r27
 55e:	af 91       	pop	r26
 560:	9f 91       	pop	r25
 562:	8f 91       	pop	r24
 564:	7f 91       	pop	r23
 566:	6f 91       	pop	r22
 568:	5f 91       	pop	r21
 56a:	4f 91       	pop	r20
 56c:	3f 91       	pop	r19
 56e:	2f 91       	pop	r18
 570:	0f 90       	pop	r0
 572:	0f be       	out	0x3f, r0	; 63
 574:	0f 90       	pop	r0
 576:	1f 90       	pop	r1
 578:	18 95       	reti

0000057a <dio_vidConfigChannel>:
		value = (PIND & mask) >> pos;
		break;
	}
	
	return value;
}
 57a:	81 30       	cpi	r24, 0x01	; 1
 57c:	01 f1       	breq	.+64     	; 0x5be <dio_vidConfigChannel+0x44>
 57e:	30 f0       	brcs	.+12     	; 0x58c <dio_vidConfigChannel+0x12>
 580:	82 30       	cpi	r24, 0x02	; 2
 582:	b1 f1       	breq	.+108    	; 0x5f0 <dio_vidConfigChannel+0x76>
 584:	83 30       	cpi	r24, 0x03	; 3
 586:	09 f4       	brne	.+2      	; 0x58a <dio_vidConfigChannel+0x10>
 588:	4c c0       	rjmp	.+152    	; 0x622 <dio_vidConfigChannel+0xa8>
 58a:	08 95       	ret
 58c:	41 30       	cpi	r20, 0x01	; 1
 58e:	59 f4       	brne	.+22     	; 0x5a6 <dio_vidConfigChannel+0x2c>
 590:	2a b3       	in	r18, 0x1a	; 26
 592:	81 e0       	ldi	r24, 0x01	; 1
 594:	90 e0       	ldi	r25, 0x00	; 0
 596:	02 c0       	rjmp	.+4      	; 0x59c <dio_vidConfigChannel+0x22>
 598:	88 0f       	add	r24, r24
 59a:	99 1f       	adc	r25, r25
 59c:	6a 95       	dec	r22
 59e:	e2 f7       	brpl	.-8      	; 0x598 <dio_vidConfigChannel+0x1e>
 5a0:	82 2b       	or	r24, r18
 5a2:	8a bb       	out	0x1a, r24	; 26
 5a4:	08 95       	ret
 5a6:	2a b3       	in	r18, 0x1a	; 26
 5a8:	81 e0       	ldi	r24, 0x01	; 1
 5aa:	90 e0       	ldi	r25, 0x00	; 0
 5ac:	02 c0       	rjmp	.+4      	; 0x5b2 <dio_vidConfigChannel+0x38>
 5ae:	88 0f       	add	r24, r24
 5b0:	99 1f       	adc	r25, r25
 5b2:	6a 95       	dec	r22
 5b4:	e2 f7       	brpl	.-8      	; 0x5ae <dio_vidConfigChannel+0x34>
 5b6:	80 95       	com	r24
 5b8:	82 23       	and	r24, r18
 5ba:	8a bb       	out	0x1a, r24	; 26
 5bc:	08 95       	ret
 5be:	41 30       	cpi	r20, 0x01	; 1
 5c0:	59 f4       	brne	.+22     	; 0x5d8 <dio_vidConfigChannel+0x5e>
 5c2:	27 b3       	in	r18, 0x17	; 23
 5c4:	81 e0       	ldi	r24, 0x01	; 1
 5c6:	90 e0       	ldi	r25, 0x00	; 0
 5c8:	02 c0       	rjmp	.+4      	; 0x5ce <dio_vidConfigChannel+0x54>
 5ca:	88 0f       	add	r24, r24
 5cc:	99 1f       	adc	r25, r25
 5ce:	6a 95       	dec	r22
 5d0:	e2 f7       	brpl	.-8      	; 0x5ca <dio_vidConfigChannel+0x50>
 5d2:	82 2b       	or	r24, r18
 5d4:	87 bb       	out	0x17, r24	; 23
 5d6:	08 95       	ret
 5d8:	27 b3       	in	r18, 0x17	; 23
 5da:	81 e0       	ldi	r24, 0x01	; 1
 5dc:	90 e0       	ldi	r25, 0x00	; 0
 5de:	02 c0       	rjmp	.+4      	; 0x5e4 <dio_vidConfigChannel+0x6a>
 5e0:	88 0f       	add	r24, r24
 5e2:	99 1f       	adc	r25, r25
 5e4:	6a 95       	dec	r22
 5e6:	e2 f7       	brpl	.-8      	; 0x5e0 <dio_vidConfigChannel+0x66>
 5e8:	80 95       	com	r24
 5ea:	82 23       	and	r24, r18
 5ec:	87 bb       	out	0x17, r24	; 23
 5ee:	08 95       	ret
 5f0:	41 30       	cpi	r20, 0x01	; 1
 5f2:	59 f4       	brne	.+22     	; 0x60a <dio_vidConfigChannel+0x90>
 5f4:	24 b3       	in	r18, 0x14	; 20
 5f6:	81 e0       	ldi	r24, 0x01	; 1
 5f8:	90 e0       	ldi	r25, 0x00	; 0
 5fa:	02 c0       	rjmp	.+4      	; 0x600 <dio_vidConfigChannel+0x86>
 5fc:	88 0f       	add	r24, r24
 5fe:	99 1f       	adc	r25, r25
 600:	6a 95       	dec	r22
 602:	e2 f7       	brpl	.-8      	; 0x5fc <dio_vidConfigChannel+0x82>
 604:	82 2b       	or	r24, r18
 606:	84 bb       	out	0x14, r24	; 20
 608:	08 95       	ret
 60a:	24 b3       	in	r18, 0x14	; 20
 60c:	81 e0       	ldi	r24, 0x01	; 1
 60e:	90 e0       	ldi	r25, 0x00	; 0
 610:	02 c0       	rjmp	.+4      	; 0x616 <dio_vidConfigChannel+0x9c>
 612:	88 0f       	add	r24, r24
 614:	99 1f       	adc	r25, r25
 616:	6a 95       	dec	r22
 618:	e2 f7       	brpl	.-8      	; 0x612 <dio_vidConfigChannel+0x98>
 61a:	80 95       	com	r24
 61c:	82 23       	and	r24, r18
 61e:	84 bb       	out	0x14, r24	; 20
 620:	08 95       	ret
 622:	41 30       	cpi	r20, 0x01	; 1
 624:	59 f4       	brne	.+22     	; 0x63c <dio_vidConfigChannel+0xc2>
 626:	21 b3       	in	r18, 0x11	; 17
 628:	81 e0       	ldi	r24, 0x01	; 1
 62a:	90 e0       	ldi	r25, 0x00	; 0
 62c:	02 c0       	rjmp	.+4      	; 0x632 <dio_vidConfigChannel+0xb8>
 62e:	88 0f       	add	r24, r24
 630:	99 1f       	adc	r25, r25
 632:	6a 95       	dec	r22
 634:	e2 f7       	brpl	.-8      	; 0x62e <dio_vidConfigChannel+0xb4>
 636:	82 2b       	or	r24, r18
 638:	81 bb       	out	0x11, r24	; 17
 63a:	08 95       	ret
 63c:	21 b3       	in	r18, 0x11	; 17
 63e:	81 e0       	ldi	r24, 0x01	; 1
 640:	90 e0       	ldi	r25, 0x00	; 0
 642:	02 c0       	rjmp	.+4      	; 0x648 <dio_vidConfigChannel+0xce>
 644:	88 0f       	add	r24, r24
 646:	99 1f       	adc	r25, r25
 648:	6a 95       	dec	r22
 64a:	e2 f7       	brpl	.-8      	; 0x644 <dio_vidConfigChannel+0xca>
 64c:	80 95       	com	r24
 64e:	82 23       	and	r24, r18
 650:	81 bb       	out	0x11, r24	; 17
 652:	08 95       	ret

00000654 <dio_vidWriteChannel>:
 654:	81 30       	cpi	r24, 0x01	; 1
 656:	01 f1       	breq	.+64     	; 0x698 <dio_vidWriteChannel+0x44>
 658:	30 f0       	brcs	.+12     	; 0x666 <dio_vidWriteChannel+0x12>
 65a:	82 30       	cpi	r24, 0x02	; 2
 65c:	b1 f1       	breq	.+108    	; 0x6ca <dio_vidWriteChannel+0x76>
 65e:	83 30       	cpi	r24, 0x03	; 3
 660:	09 f4       	brne	.+2      	; 0x664 <dio_vidWriteChannel+0x10>
 662:	4c c0       	rjmp	.+152    	; 0x6fc <dio_vidWriteChannel+0xa8>
 664:	08 95       	ret
 666:	41 11       	cpse	r20, r1
 668:	0c c0       	rjmp	.+24     	; 0x682 <dio_vidWriteChannel+0x2e>
 66a:	2b b3       	in	r18, 0x1b	; 27
 66c:	81 e0       	ldi	r24, 0x01	; 1
 66e:	90 e0       	ldi	r25, 0x00	; 0
 670:	02 c0       	rjmp	.+4      	; 0x676 <dio_vidWriteChannel+0x22>
 672:	88 0f       	add	r24, r24
 674:	99 1f       	adc	r25, r25
 676:	6a 95       	dec	r22
 678:	e2 f7       	brpl	.-8      	; 0x672 <dio_vidWriteChannel+0x1e>
 67a:	80 95       	com	r24
 67c:	82 23       	and	r24, r18
 67e:	8b bb       	out	0x1b, r24	; 27
 680:	08 95       	ret
 682:	2b b3       	in	r18, 0x1b	; 27
 684:	81 e0       	ldi	r24, 0x01	; 1
 686:	90 e0       	ldi	r25, 0x00	; 0
 688:	02 c0       	rjmp	.+4      	; 0x68e <dio_vidWriteChannel+0x3a>
 68a:	88 0f       	add	r24, r24
 68c:	99 1f       	adc	r25, r25
 68e:	6a 95       	dec	r22
 690:	e2 f7       	brpl	.-8      	; 0x68a <dio_vidWriteChannel+0x36>
 692:	82 2b       	or	r24, r18
 694:	8b bb       	out	0x1b, r24	; 27
 696:	08 95       	ret
 698:	41 11       	cpse	r20, r1
 69a:	0c c0       	rjmp	.+24     	; 0x6b4 <dio_vidWriteChannel+0x60>
 69c:	28 b3       	in	r18, 0x18	; 24
 69e:	81 e0       	ldi	r24, 0x01	; 1
 6a0:	90 e0       	ldi	r25, 0x00	; 0
 6a2:	02 c0       	rjmp	.+4      	; 0x6a8 <dio_vidWriteChannel+0x54>
 6a4:	88 0f       	add	r24, r24
 6a6:	99 1f       	adc	r25, r25
 6a8:	6a 95       	dec	r22
 6aa:	e2 f7       	brpl	.-8      	; 0x6a4 <dio_vidWriteChannel+0x50>
 6ac:	80 95       	com	r24
 6ae:	82 23       	and	r24, r18
 6b0:	88 bb       	out	0x18, r24	; 24
 6b2:	08 95       	ret
 6b4:	28 b3       	in	r18, 0x18	; 24
 6b6:	81 e0       	ldi	r24, 0x01	; 1
 6b8:	90 e0       	ldi	r25, 0x00	; 0
 6ba:	02 c0       	rjmp	.+4      	; 0x6c0 <dio_vidWriteChannel+0x6c>
 6bc:	88 0f       	add	r24, r24
 6be:	99 1f       	adc	r25, r25
 6c0:	6a 95       	dec	r22
 6c2:	e2 f7       	brpl	.-8      	; 0x6bc <dio_vidWriteChannel+0x68>
 6c4:	82 2b       	or	r24, r18
 6c6:	88 bb       	out	0x18, r24	; 24
 6c8:	08 95       	ret
 6ca:	41 11       	cpse	r20, r1
 6cc:	0c c0       	rjmp	.+24     	; 0x6e6 <dio_vidWriteChannel+0x92>
 6ce:	25 b3       	in	r18, 0x15	; 21
 6d0:	81 e0       	ldi	r24, 0x01	; 1
 6d2:	90 e0       	ldi	r25, 0x00	; 0
 6d4:	02 c0       	rjmp	.+4      	; 0x6da <dio_vidWriteChannel+0x86>
 6d6:	88 0f       	add	r24, r24
 6d8:	99 1f       	adc	r25, r25
 6da:	6a 95       	dec	r22
 6dc:	e2 f7       	brpl	.-8      	; 0x6d6 <dio_vidWriteChannel+0x82>
 6de:	80 95       	com	r24
 6e0:	82 23       	and	r24, r18
 6e2:	85 bb       	out	0x15, r24	; 21
 6e4:	08 95       	ret
 6e6:	25 b3       	in	r18, 0x15	; 21
 6e8:	81 e0       	ldi	r24, 0x01	; 1
 6ea:	90 e0       	ldi	r25, 0x00	; 0
 6ec:	02 c0       	rjmp	.+4      	; 0x6f2 <dio_vidWriteChannel+0x9e>
 6ee:	88 0f       	add	r24, r24
 6f0:	99 1f       	adc	r25, r25
 6f2:	6a 95       	dec	r22
 6f4:	e2 f7       	brpl	.-8      	; 0x6ee <dio_vidWriteChannel+0x9a>
 6f6:	82 2b       	or	r24, r18
 6f8:	85 bb       	out	0x15, r24	; 21
 6fa:	08 95       	ret
 6fc:	41 11       	cpse	r20, r1
 6fe:	0c c0       	rjmp	.+24     	; 0x718 <dio_vidWriteChannel+0xc4>
 700:	22 b3       	in	r18, 0x12	; 18
 702:	81 e0       	ldi	r24, 0x01	; 1
 704:	90 e0       	ldi	r25, 0x00	; 0
 706:	02 c0       	rjmp	.+4      	; 0x70c <dio_vidWriteChannel+0xb8>
 708:	88 0f       	add	r24, r24
 70a:	99 1f       	adc	r25, r25
 70c:	6a 95       	dec	r22
 70e:	e2 f7       	brpl	.-8      	; 0x708 <dio_vidWriteChannel+0xb4>
 710:	80 95       	com	r24
 712:	82 23       	and	r24, r18
 714:	82 bb       	out	0x12, r24	; 18
 716:	08 95       	ret
 718:	22 b3       	in	r18, 0x12	; 18
 71a:	81 e0       	ldi	r24, 0x01	; 1
 71c:	90 e0       	ldi	r25, 0x00	; 0
 71e:	02 c0       	rjmp	.+4      	; 0x724 <dio_vidWriteChannel+0xd0>
 720:	88 0f       	add	r24, r24
 722:	99 1f       	adc	r25, r25
 724:	6a 95       	dec	r22
 726:	e2 f7       	brpl	.-8      	; 0x720 <dio_vidWriteChannel+0xcc>
 728:	82 2b       	or	r24, r18
 72a:	82 bb       	out	0x12, r24	; 18
 72c:	08 95       	ret

0000072e <dio_vidFlipChannel>:
					 channel  -> MC channel ID
* \Return value:   : None                            
*******************************************************************************/
void dio_vidFlipChannel(dio_portId_t port, dio_channelId_t channel)
{
	switch (port)
 72e:	81 30       	cpi	r24, 0x01	; 1
 730:	89 f0       	breq	.+34     	; 0x754 <dio_vidFlipChannel+0x26>
 732:	28 f0       	brcs	.+10     	; 0x73e <dio_vidFlipChannel+0x10>
 734:	82 30       	cpi	r24, 0x02	; 2
 736:	c9 f0       	breq	.+50     	; 0x76a <dio_vidFlipChannel+0x3c>
 738:	83 30       	cpi	r24, 0x03	; 3
 73a:	11 f1       	breq	.+68     	; 0x780 <dio_vidFlipChannel+0x52>
 73c:	08 95       	ret
	{
	case DIO_PORTA:
		FLIP_BIT(PORTA,channel);
 73e:	2b b3       	in	r18, 0x1b	; 27
 740:	81 e0       	ldi	r24, 0x01	; 1
 742:	90 e0       	ldi	r25, 0x00	; 0
 744:	02 c0       	rjmp	.+4      	; 0x74a <dio_vidFlipChannel+0x1c>
 746:	88 0f       	add	r24, r24
 748:	99 1f       	adc	r25, r25
 74a:	6a 95       	dec	r22
 74c:	e2 f7       	brpl	.-8      	; 0x746 <dio_vidFlipChannel+0x18>
 74e:	82 27       	eor	r24, r18
 750:	8b bb       	out	0x1b, r24	; 27
		break;
 752:	08 95       	ret

	case DIO_PORTB:
		FLIP_BIT(PORTB,channel);
 754:	28 b3       	in	r18, 0x18	; 24
 756:	81 e0       	ldi	r24, 0x01	; 1
 758:	90 e0       	ldi	r25, 0x00	; 0
 75a:	02 c0       	rjmp	.+4      	; 0x760 <dio_vidFlipChannel+0x32>
 75c:	88 0f       	add	r24, r24
 75e:	99 1f       	adc	r25, r25
 760:	6a 95       	dec	r22
 762:	e2 f7       	brpl	.-8      	; 0x75c <dio_vidFlipChannel+0x2e>
 764:	82 27       	eor	r24, r18
 766:	88 bb       	out	0x18, r24	; 24
		break;
 768:	08 95       	ret

	case DIO_PORTC:
		FLIP_BIT(PORTC,channel);
 76a:	25 b3       	in	r18, 0x15	; 21
 76c:	81 e0       	ldi	r24, 0x01	; 1
 76e:	90 e0       	ldi	r25, 0x00	; 0
 770:	02 c0       	rjmp	.+4      	; 0x776 <dio_vidFlipChannel+0x48>
 772:	88 0f       	add	r24, r24
 774:	99 1f       	adc	r25, r25
 776:	6a 95       	dec	r22
 778:	e2 f7       	brpl	.-8      	; 0x772 <dio_vidFlipChannel+0x44>
 77a:	82 27       	eor	r24, r18
 77c:	85 bb       	out	0x15, r24	; 21
		break;
 77e:	08 95       	ret

	case DIO_PORTD:
		FLIP_BIT(PORTD,channel);
 780:	22 b3       	in	r18, 0x12	; 18
 782:	81 e0       	ldi	r24, 0x01	; 1
 784:	90 e0       	ldi	r25, 0x00	; 0
 786:	02 c0       	rjmp	.+4      	; 0x78c <dio_vidFlipChannel+0x5e>
 788:	88 0f       	add	r24, r24
 78a:	99 1f       	adc	r25, r25
 78c:	6a 95       	dec	r22
 78e:	e2 f7       	brpl	.-8      	; 0x788 <dio_vidFlipChannel+0x5a>
 790:	82 27       	eor	r24, r18
 792:	82 bb       	out	0x12, r24	; 18
 794:	08 95       	ret

00000796 <EXTI_Init>:
	}
	break;
	case EXTI_2:
	{
		// Disable INT2
		CLEAR_BIT(GICR, 5);
 796:	81 30       	cpi	r24, 0x01	; 1
 798:	79 f0       	breq	.+30     	; 0x7b8 <EXTI_Init+0x22>
 79a:	18 f0       	brcs	.+6      	; 0x7a2 <EXTI_Init+0xc>
 79c:	82 30       	cpi	r24, 0x02	; 2
 79e:	b9 f0       	breq	.+46     	; 0x7ce <EXTI_Init+0x38>
 7a0:	08 95       	ret
 7a2:	85 b7       	in	r24, 0x35	; 53
 7a4:	8c 7f       	andi	r24, 0xFC	; 252
 7a6:	85 bf       	out	0x35, r24	; 53
 7a8:	85 b7       	in	r24, 0x35	; 53
 7aa:	63 70       	andi	r22, 0x03	; 3
 7ac:	68 2b       	or	r22, r24
 7ae:	65 bf       	out	0x35, r22	; 53
 7b0:	8b b7       	in	r24, 0x3b	; 59
 7b2:	80 64       	ori	r24, 0x40	; 64
 7b4:	8b bf       	out	0x3b, r24	; 59
 7b6:	08 95       	ret
 7b8:	85 b7       	in	r24, 0x35	; 53
 7ba:	83 7f       	andi	r24, 0xF3	; 243
 7bc:	85 bf       	out	0x35, r24	; 53
 7be:	85 b7       	in	r24, 0x35	; 53
 7c0:	6c 70       	andi	r22, 0x0C	; 12
 7c2:	68 2b       	or	r22, r24
 7c4:	65 bf       	out	0x35, r22	; 53
 7c6:	8b b7       	in	r24, 0x3b	; 59
 7c8:	80 68       	ori	r24, 0x80	; 128
 7ca:	8b bf       	out	0x3b, r24	; 59
 7cc:	08 95       	ret
 7ce:	84 b7       	in	r24, 0x34	; 52
 7d0:	8f 7b       	andi	r24, 0xBF	; 191
 7d2:	84 bf       	out	0x34, r24	; 52
 7d4:	84 b7       	in	r24, 0x34	; 52
 7d6:	62 50       	subi	r22, 0x02	; 2
 7d8:	60 72       	andi	r22, 0x20	; 32
 7da:	68 2b       	or	r22, r24
 7dc:	64 bf       	out	0x34, r22	; 52
 7de:	8b b7       	in	r24, 0x3b	; 59
 7e0:	80 62       	ori	r24, 0x20	; 32
 7e2:	8b bf       	out	0x3b, r24	; 59
 7e4:	08 95       	ret

000007e6 <EXTI_voidSetCallbackFunction>:
 7e6:	81 30       	cpi	r24, 0x01	; 1
 7e8:	49 f0       	breq	.+18     	; 0x7fc <EXTI_voidSetCallbackFunction+0x16>
 7ea:	18 f0       	brcs	.+6      	; 0x7f2 <EXTI_voidSetCallbackFunction+0xc>
 7ec:	82 30       	cpi	r24, 0x02	; 2
 7ee:	59 f0       	breq	.+22     	; 0x806 <__DATA_REGION_LENGTH__+0x6>
 7f0:	08 95       	ret
 7f2:	70 93 a7 00 	sts	0x00A7, r23	; 0x8000a7 <EXTI0_callback+0x1>
 7f6:	60 93 a6 00 	sts	0x00A6, r22	; 0x8000a6 <EXTI0_callback>
 7fa:	08 95       	ret
 7fc:	70 93 a3 00 	sts	0x00A3, r23	; 0x8000a3 <EXTI1_callback+0x1>
 800:	60 93 a2 00 	sts	0x00A2, r22	; 0x8000a2 <EXTI1_callback>
 804:	08 95       	ret
 806:	70 93 a5 00 	sts	0x00A5, r23	; 0x8000a5 <EXTI2_callback+0x1>
 80a:	60 93 a4 00 	sts	0x00A4, r22	; 0x8000a4 <EXTI2_callback>
 80e:	08 95       	ret

00000810 <__vector_1>:
void __vector_1(void) __attribute__((signal, used));
void __vector_2(void) __attribute__((signal, used));
void __vector_3(void) __attribute__((signal, used));

void __vector_1(void)
{
 810:	1f 92       	push	r1
 812:	0f 92       	push	r0
 814:	0f b6       	in	r0, 0x3f	; 63
 816:	0f 92       	push	r0
 818:	11 24       	eor	r1, r1
 81a:	2f 93       	push	r18
 81c:	3f 93       	push	r19
 81e:	4f 93       	push	r20
 820:	5f 93       	push	r21
 822:	6f 93       	push	r22
 824:	7f 93       	push	r23
 826:	8f 93       	push	r24
 828:	9f 93       	push	r25
 82a:	af 93       	push	r26
 82c:	bf 93       	push	r27
 82e:	ef 93       	push	r30
 830:	ff 93       	push	r31
	EXTI0_callback();
 832:	e0 91 a6 00 	lds	r30, 0x00A6	; 0x8000a6 <EXTI0_callback>
 836:	f0 91 a7 00 	lds	r31, 0x00A7	; 0x8000a7 <EXTI0_callback+0x1>
 83a:	09 95       	icall
}
 83c:	ff 91       	pop	r31
 83e:	ef 91       	pop	r30
 840:	bf 91       	pop	r27
 842:	af 91       	pop	r26
 844:	9f 91       	pop	r25
 846:	8f 91       	pop	r24
 848:	7f 91       	pop	r23
 84a:	6f 91       	pop	r22
 84c:	5f 91       	pop	r21
 84e:	4f 91       	pop	r20
 850:	3f 91       	pop	r19
 852:	2f 91       	pop	r18
 854:	0f 90       	pop	r0
 856:	0f be       	out	0x3f, r0	; 63
 858:	0f 90       	pop	r0
 85a:	1f 90       	pop	r1
 85c:	18 95       	reti

0000085e <__vector_2>:

void __vector_2(void)
{
 85e:	1f 92       	push	r1
 860:	0f 92       	push	r0
 862:	0f b6       	in	r0, 0x3f	; 63
 864:	0f 92       	push	r0
 866:	11 24       	eor	r1, r1
 868:	2f 93       	push	r18
 86a:	3f 93       	push	r19
 86c:	4f 93       	push	r20
 86e:	5f 93       	push	r21
 870:	6f 93       	push	r22
 872:	7f 93       	push	r23
 874:	8f 93       	push	r24
 876:	9f 93       	push	r25
 878:	af 93       	push	r26
 87a:	bf 93       	push	r27
 87c:	ef 93       	push	r30
 87e:	ff 93       	push	r31
	EXTI1_callback();
 880:	e0 91 a2 00 	lds	r30, 0x00A2	; 0x8000a2 <EXTI1_callback>
 884:	f0 91 a3 00 	lds	r31, 0x00A3	; 0x8000a3 <EXTI1_callback+0x1>
 888:	09 95       	icall
}
 88a:	ff 91       	pop	r31
 88c:	ef 91       	pop	r30
 88e:	bf 91       	pop	r27
 890:	af 91       	pop	r26
 892:	9f 91       	pop	r25
 894:	8f 91       	pop	r24
 896:	7f 91       	pop	r23
 898:	6f 91       	pop	r22
 89a:	5f 91       	pop	r21
 89c:	4f 91       	pop	r20
 89e:	3f 91       	pop	r19
 8a0:	2f 91       	pop	r18
 8a2:	0f 90       	pop	r0
 8a4:	0f be       	out	0x3f, r0	; 63
 8a6:	0f 90       	pop	r0
 8a8:	1f 90       	pop	r1
 8aa:	18 95       	reti

000008ac <__vector_3>:

void __vector_3(void)
{
 8ac:	1f 92       	push	r1
 8ae:	0f 92       	push	r0
 8b0:	0f b6       	in	r0, 0x3f	; 63
 8b2:	0f 92       	push	r0
 8b4:	11 24       	eor	r1, r1
 8b6:	2f 93       	push	r18
 8b8:	3f 93       	push	r19
 8ba:	4f 93       	push	r20
 8bc:	5f 93       	push	r21
 8be:	6f 93       	push	r22
 8c0:	7f 93       	push	r23
 8c2:	8f 93       	push	r24
 8c4:	9f 93       	push	r25
 8c6:	af 93       	push	r26
 8c8:	bf 93       	push	r27
 8ca:	ef 93       	push	r30
 8cc:	ff 93       	push	r31
	EXTI2_callback();
 8ce:	e0 91 a4 00 	lds	r30, 0x00A4	; 0x8000a4 <EXTI2_callback>
 8d2:	f0 91 a5 00 	lds	r31, 0x00A5	; 0x8000a5 <EXTI2_callback+0x1>
 8d6:	09 95       	icall
 8d8:	ff 91       	pop	r31
 8da:	ef 91       	pop	r30
 8dc:	bf 91       	pop	r27
 8de:	af 91       	pop	r26
 8e0:	9f 91       	pop	r25
 8e2:	8f 91       	pop	r24
 8e4:	7f 91       	pop	r23
 8e6:	6f 91       	pop	r22
 8e8:	5f 91       	pop	r21
 8ea:	4f 91       	pop	r20
 8ec:	3f 91       	pop	r19
 8ee:	2f 91       	pop	r18
 8f0:	0f 90       	pop	r0
 8f2:	0f be       	out	0x3f, r0	; 63
 8f4:	0f 90       	pop	r0
 8f6:	1f 90       	pop	r1
 8f8:	18 95       	reti

000008fa <__vector_10>:

    /* Set mode of OC0 pin mode
       COM01 bit5   COM00 bit4  in RCCR0
     */
    TCCR0 &= ~(0x30);
    TCCR0 |= ((MODE << 4) & 0x30);
 8fa:	1f 92       	push	r1
 8fc:	0f 92       	push	r0
 8fe:	0f b6       	in	r0, 0x3f	; 63
 900:	0f 92       	push	r0
 902:	11 24       	eor	r1, r1
 904:	2f 93       	push	r18
 906:	3f 93       	push	r19
 908:	4f 93       	push	r20
 90a:	5f 93       	push	r21
 90c:	6f 93       	push	r22
 90e:	7f 93       	push	r23
 910:	8f 93       	push	r24
 912:	9f 93       	push	r25
 914:	af 93       	push	r26
 916:	bf 93       	push	r27
 918:	ef 93       	push	r30
 91a:	ff 93       	push	r31
 91c:	e0 91 a8 00 	lds	r30, 0x00A8	; 0x8000a8 <T0_OC_CallBackFun>
 920:	f0 91 a9 00 	lds	r31, 0x00A9	; 0x8000a9 <T0_OC_CallBackFun+0x1>
 924:	30 97       	sbiw	r30, 0x00	; 0
 926:	09 f0       	breq	.+2      	; 0x92a <__vector_10+0x30>
 928:	09 95       	icall
 92a:	ff 91       	pop	r31
 92c:	ef 91       	pop	r30
 92e:	bf 91       	pop	r27
 930:	af 91       	pop	r26
 932:	9f 91       	pop	r25
 934:	8f 91       	pop	r24
 936:	7f 91       	pop	r23
 938:	6f 91       	pop	r22
 93a:	5f 91       	pop	r21
 93c:	4f 91       	pop	r20
 93e:	3f 91       	pop	r19
 940:	2f 91       	pop	r18
 942:	0f 90       	pop	r0
 944:	0f be       	out	0x3f, r0	; 63
 946:	0f 90       	pop	r0
 948:	1f 90       	pop	r1
 94a:	18 95       	reti

0000094c <__vector_11>:
}
void __vector_11(void) __attribute__((signal));
void __vector_11(void)
{
 94c:	1f 92       	push	r1
 94e:	0f 92       	push	r0
 950:	0f b6       	in	r0, 0x3f	; 63
 952:	0f 92       	push	r0
 954:	11 24       	eor	r1, r1
 956:	2f 93       	push	r18
 958:	3f 93       	push	r19
 95a:	4f 93       	push	r20
 95c:	5f 93       	push	r21
 95e:	6f 93       	push	r22
 960:	7f 93       	push	r23
 962:	8f 93       	push	r24
 964:	9f 93       	push	r25
 966:	af 93       	push	r26
 968:	bf 93       	push	r27
 96a:	ef 93       	push	r30
 96c:	ff 93       	push	r31
    if (T0_OVF_CallBackFun != NULL)
 96e:	e0 91 aa 00 	lds	r30, 0x00AA	; 0x8000aa <T0_OVF_CallBackFun>
 972:	f0 91 ab 00 	lds	r31, 0x00AB	; 0x8000ab <T0_OVF_CallBackFun+0x1>
 976:	30 97       	sbiw	r30, 0x00	; 0
 978:	09 f0       	breq	.+2      	; 0x97c <__vector_11+0x30>
    {
        T0_OVF_CallBackFun();
 97a:	09 95       	icall
    }
}
 97c:	ff 91       	pop	r31
 97e:	ef 91       	pop	r30
 980:	bf 91       	pop	r27
 982:	af 91       	pop	r26
 984:	9f 91       	pop	r25
 986:	8f 91       	pop	r24
 988:	7f 91       	pop	r23
 98a:	6f 91       	pop	r22
 98c:	5f 91       	pop	r21
 98e:	4f 91       	pop	r20
 990:	3f 91       	pop	r19
 992:	2f 91       	pop	r18
 994:	0f 90       	pop	r0
 996:	0f be       	out	0x3f, r0	; 63
 998:	0f 90       	pop	r0
 99a:	1f 90       	pop	r1
 99c:	18 95       	reti

0000099e <__itoa_ncheck>:
 99e:	bb 27       	eor	r27, r27
 9a0:	4a 30       	cpi	r20, 0x0A	; 10
 9a2:	31 f4       	brne	.+12     	; 0x9b0 <__itoa_ncheck+0x12>
 9a4:	99 23       	and	r25, r25
 9a6:	22 f4       	brpl	.+8      	; 0x9b0 <__itoa_ncheck+0x12>
 9a8:	bd e2       	ldi	r27, 0x2D	; 45
 9aa:	90 95       	com	r25
 9ac:	81 95       	neg	r24
 9ae:	9f 4f       	sbci	r25, 0xFF	; 255
 9b0:	0c 94 db 04 	jmp	0x9b6	; 0x9b6 <__utoa_common>

000009b4 <__utoa_ncheck>:
 9b4:	bb 27       	eor	r27, r27

000009b6 <__utoa_common>:
 9b6:	fb 01       	movw	r30, r22
 9b8:	55 27       	eor	r21, r21
 9ba:	aa 27       	eor	r26, r26
 9bc:	88 0f       	add	r24, r24
 9be:	99 1f       	adc	r25, r25
 9c0:	aa 1f       	adc	r26, r26
 9c2:	a4 17       	cp	r26, r20
 9c4:	10 f0       	brcs	.+4      	; 0x9ca <__utoa_common+0x14>
 9c6:	a4 1b       	sub	r26, r20
 9c8:	83 95       	inc	r24
 9ca:	50 51       	subi	r21, 0x10	; 16
 9cc:	b9 f7       	brne	.-18     	; 0x9bc <__utoa_common+0x6>
 9ce:	a0 5d       	subi	r26, 0xD0	; 208
 9d0:	aa 33       	cpi	r26, 0x3A	; 58
 9d2:	08 f0       	brcs	.+2      	; 0x9d6 <__utoa_common+0x20>
 9d4:	a9 5d       	subi	r26, 0xD9	; 217
 9d6:	a1 93       	st	Z+, r26
 9d8:	00 97       	sbiw	r24, 0x00	; 0
 9da:	79 f7       	brne	.-34     	; 0x9ba <__utoa_common+0x4>
 9dc:	b1 11       	cpse	r27, r1
 9de:	b1 93       	st	Z+, r27
 9e0:	11 92       	st	Z+, r1
 9e2:	cb 01       	movw	r24, r22
 9e4:	0c 94 f4 04 	jmp	0x9e8	; 0x9e8 <strrev>

000009e8 <strrev>:
 9e8:	dc 01       	movw	r26, r24
 9ea:	fc 01       	movw	r30, r24
 9ec:	67 2f       	mov	r22, r23
 9ee:	71 91       	ld	r23, Z+
 9f0:	77 23       	and	r23, r23
 9f2:	e1 f7       	brne	.-8      	; 0x9ec <strrev+0x4>
 9f4:	32 97       	sbiw	r30, 0x02	; 2
 9f6:	04 c0       	rjmp	.+8      	; 0xa00 <strrev+0x18>
 9f8:	7c 91       	ld	r23, X
 9fa:	6d 93       	st	X+, r22
 9fc:	70 83       	st	Z, r23
 9fe:	62 91       	ld	r22, -Z
 a00:	ae 17       	cp	r26, r30
 a02:	bf 07       	cpc	r27, r31
 a04:	c8 f3       	brcs	.-14     	; 0x9f8 <strrev+0x10>
 a06:	08 95       	ret

00000a08 <_exit>:
 a08:	f8 94       	cli

00000a0a <__stop_program>:
 a0a:	ff cf       	rjmp	.-2      	; 0xa0a <__stop_program>
